; Function Attrs: mustprogress nounwind uwtable
define internal fastcc void @_ZN6hermes12_GLOBAL__N_15GenJS5visitEPNS_6ESTree14SwitchCaseNodeE(ptr noundef nonnull align 8 captures(none) dereferenceable(16) %this, ptr noundef %node) unnamed_addr #0 align 2 {
entry:
  %_test = getelementptr inbounds nuw i8, ptr %node, i64 48
  %0 = load ptr, ptr %_test, align 8
  %tobool.not = icmp eq ptr %0, null
  %1 = load ptr, ptr %this, align 8
  %OutBufEnd.i5.i7 = getelementptr inbounds nuw i8, ptr %1, i64 16
  %2 = load ptr, ptr %OutBufEnd.i5.i7, align 8
  %OutBufCur.i6.i8 = getelementptr inbounds nuw i8, ptr %1, i64 24
  %3 = load ptr, ptr %OutBufCur.i6.i8, align 8
  %sub.ptr.lhs.cast.i7.i9 = ptrtoint ptr %2 to i64
  %sub.ptr.rhs.cast.i8.i10 = ptrtoint ptr %3 to i64
  %sub.ptr.sub.i9.i11 = sub i64 %sub.ptr.lhs.cast.i7.i9, %sub.ptr.rhs.cast.i8.i10
  br i1 %tobool.not, label %if.else, label %if.then

if.then:                                          ; preds = %entry
  %cmp.i.i = icmp ult i64 %sub.ptr.sub.i9.i11, 5
  br i1 %cmp.i.i, label %if.then.i.i, label %if.then4.i.i

if.then.i.i:                                      ; preds = %if.then
  %call3.i.i = tail call noundef nonnull align 8 dereferenceable(36) ptr @_ZN4llvh11raw_ostream5writeEPKcm(ptr noundef nonnull align 8 dereferenceable(36) %1, ptr noundef nonnull @.str.305, i64 noundef 5) #12
  br label %_ZN4llvh11raw_ostreamlsEPKc.exit

if.then4.i.i:                                     ; preds = %if.then
  tail call void @llvm.memcpy.p0.p0.i64(ptr noundef nonnull align 1 dereferenceable(5) %3, ptr noundef nonnull align 1 dereferenceable(5) @.str.305, i64 5, i1 false)
  %4 = load ptr, ptr %OutBufCur.i6.i8, align 8
  %add.ptr.i.i = getelementptr inbounds nuw i8, ptr %4, i64 5
  store ptr %add.ptr.i.i, ptr %OutBufCur.i6.i8, align 8
  br label %_ZN4llvh11raw_ostreamlsEPKc.exit

_ZN4llvh11raw_ostreamlsEPKc.exit:                 ; preds = %if.then.i.i, %if.then4.i.i
  %5 = load ptr, ptr %_test, align 8
  tail call fastcc void @_ZN6hermes6ESTree24RecursiveVisitorDispatchINS_12_GLOBAL__N_15GenJSELb1EE5visitERS3_PNS0_4NodeES7_(ptr noundef nonnull align 8 dereferenceable(16) %this, ptr noundef %5)
  br label %if.end

if.else:                                          ; preds = %entry
  %cmp.i.i12 = icmp ult i64 %sub.ptr.sub.i9.i11, 7
  br i1 %cmp.i.i12, label %if.then.i.i18, label %if.then4.i.i15

if.then.i.i18:                                    ; preds = %if.else
  %call3.i.i19 = tail call noundef nonnull align 8 dereferenceable(36) ptr @_ZN4llvh11raw_ostream5writeEPKcm(ptr noundef nonnull align 8 dereferenceable(36) %1, ptr noundef nonnull @.str.306, i64 noundef 7) #12
  br label %if.end

if.then4.i.i15:                                   ; preds = %if.else
  tail call void @llvm.memcpy.p0.p0.i64(ptr noundef nonnull align 1 dereferenceable(7) %3, ptr noundef nonnull align 1 dereferenceable(7) @.str.306, i64 7, i1 false)
  %6 = load ptr, ptr %OutBufCur.i6.i8, align 8
  %add.ptr.i.i16 = getelementptr inbounds nuw i8, ptr %6, i64 7
  store ptr %add.ptr.i.i16, ptr %OutBufCur.i6.i8, align 8
  br label %if.end

if.end:                                           ; preds = %if.then4.i.i15, %if.then.i.i18, %_ZN4llvh11raw_ostreamlsEPKc.exit
  %7 = load ptr, ptr %this, align 8
  %OutBufCur.i = getelementptr inbounds nuw i8, ptr %7, i64 24
  %8 = load ptr, ptr %OutBufCur.i, align 8
  %OutBufEnd.i = getelementptr inbounds nuw i8, ptr %7, i64 16
  %9 = load ptr, ptr %OutBufEnd.i, align 8
  %cmp.not.i = icmp ult ptr %8, %9
  br i1 %cmp.not.i, label %if.end.i, label %if.then.i

if.then.i:                                        ; preds = %if.end
  %call.i21 = tail call noundef nonnull align 8 dereferenceable(36) ptr @_ZN4llvh11raw_ostream5writeEh(ptr noundef nonnull align 8 dereferenceable(36) %7, i8 noundef zeroext 58) #12
  br label %_ZN4llvh11raw_ostreamlsEc.exit

if.end.i:                                         ; preds = %if.end
  %incdec.ptr.i = getelementptr inbounds nuw i8, ptr %8, i64 1
  store ptr %incdec.ptr.i, ptr %OutBufCur.i, align 8
  store i8 58, ptr %8, align 1
  br label %_ZN4llvh11raw_ostreamlsEc.exit

_ZN4llvh11raw_ostreamlsEc.exit:                   ; preds = %if.then.i, %if.end.i
  %_consequent = getelementptr inbounds nuw i8, ptr %node, i64 56
  %10 = load ptr, ptr %_consequent, align 8
  %cmp.i.i22 = icmp eq ptr %_consequent, %10
  br i1 %cmp.i.i22, label %if.end10, label %if.then8

if.then8:                                         ; preds = %_ZN4llvh11raw_ostreamlsEc.exit
  %indent_.i = getelementptr inbounds nuw i8, ptr %this, i64 12
  %11 = load i32, ptr %indent_.i, align 4
  %add.i = add nsw i32 %11, 2
  store i32 %add.i, ptr %indent_.i, align 4
  %pretty_.i = getelementptr inbounds nuw i8, ptr %this, i64 8
  %12 = load i8, ptr %pretty_.i, align 8
  %tobool.i = trunc i8 %12 to i1
  br i1 %tobool.i, label %if.then.i24, label %_ZN6hermes12_GLOBAL__N_15GenJS7newlineEv.exit

if.then.i24:                                      ; preds = %if.then8
  %13 = load ptr, ptr %this, align 8
  %call.i25 = tail call noundef nonnull align 8 dereferenceable(36) ptr @_ZN4llvh11raw_ostream5writeEh(ptr noundef nonnull align 8 dereferenceable(36) %13, i8 noundef zeroext 10) #12
  %14 = load i32, ptr %indent_.i, align 4
  %call2.i = tail call noundef nonnull align 8 dereferenceable(36) ptr @_ZN4llvh11raw_ostream6indentEj(ptr noundef nonnull align 8 dereferenceable(36) %call.i25, i32 noundef %14) #12
  br label %_ZN6hermes12_GLOBAL__N_15GenJS7newlineEv.exit

_ZN6hermes12_GLOBAL__N_15GenJS7newlineEv.exit:    ; preds = %if.then8, %if.then.i24
  tail call fastcc void @_ZN6hermes12_GLOBAL__N_15GenJS13visitStmtListERN4llvh12simple_ilistINS_6ESTree4NodeEJEEEPS5_(ptr noundef nonnull align 8 dereferenceable(16) %this, ptr noundef nonnull align 8 dereferenceable(16) %_consequent)
  %15 = load i32, ptr %indent_.i, align 4
  %sub.i = add nsw i32 %15, -2
  store i32 %sub.i, ptr %indent_.i, align 4
  br label %if.end10

if.end10:                                         ; preds = %_ZN6hermes12_GLOBAL__N_15GenJS7newlineEv.exit, %_ZN4llvh11raw_ostreamlsEc.exit
  ret void
}